target datalayout = "e-m:e-p270:32:32-p271:32:32-p272:64:64-i64:64-i128:128-f80:128-n8:16:32:64-S128"
target triple = "x86_64-pc-linux-gnu"

%class.ExceptionMark = type { ptr }
%class.ThreadShadow = type <{ ptr, ptr, ptr, i32, [4 x i8] }>

@_ZN28AbstractClassHierarchyWalker39_perf_find_witness_anywhere_calls_countE = hidden global ptr null, align 8
@_ZN28AbstractClassHierarchyWalker39_perf_find_witness_anywhere_steps_countE = hidden global ptr null, align 8
@_ZN28AbstractClassHierarchyWalker33_perf_find_witness_in_calls_countE = hidden global ptr null, align 8
@UsePerfData = external global i8, align 1
@.str.47 = private unnamed_addr constant [20 x i8] c"findWitnessAnywhere\00", align 1
@.str.48 = private unnamed_addr constant [25 x i8] c"findWitnessAnywhereSteps\00", align 1
@.str.49 = private unnamed_addr constant [14 x i8] c"findWitnessIn\00", align 1

; Function Attrs: mustprogress nounwind uwtable
define linkonce_odr hidden noundef zeroext i1 @_ZNK12ThreadShadow21has_pending_exceptionEv(ptr noundef nonnull align 8 dereferenceable(28) %0) #1 comdat align 2 {
  %2 = alloca ptr, align 8
  store ptr %0, ptr %2, align 8
  %3 = load ptr, ptr %2, align 8
  %4 = getelementptr inbounds %class.ThreadShadow, ptr %3, i32 0, i32 1
  %5 = load ptr, ptr %4, align 8
  %6 = icmp ne ptr %5, null
  ret i1 %6
}

; Function Attrs: mustprogress nounwind uwtable
define linkonce_odr hidden noundef ptr @_ZN15PerfDataManager14create_counterE9CounterNSPKcN8PerfData5UnitsEP10JavaThread(i32 noundef %0, ptr noundef %1, i32 noundef %2, ptr noundef %3) #1 comdat align 2 {
  %5 = alloca i32, align 4
  %6 = alloca ptr, align 8
  %7 = alloca i32, align 4
  %8 = alloca ptr, align 8
  store i32 %0, ptr %5, align 4
  store ptr %1, ptr %6, align 8
  store i32 %2, ptr %7, align 4
  store ptr %3, ptr %8, align 8
  %9 = load i32, ptr %5, align 4
  %10 = load ptr, ptr %6, align 8
  %11 = load i32, ptr %7, align 4
  %12 = load ptr, ptr %8, align 8
  %13 = call noundef ptr @_ZN15PerfDataManager19create_long_counterE9CounterNSPKcN8PerfData5UnitsElP10JavaThread(i32 noundef %9, ptr noundef %10, i32 noundef %11, i64 noundef 0, ptr noundef %12)
  ret ptr %13
}

; Function Attrs: mustprogress nounwind uwtable
define linkonce_odr hidden noundef ptr @_ZN13ExceptionMark6threadEv(ptr noundef nonnull align 8 dereferenceable(8) %0) #1 comdat align 2 {
  %2 = alloca ptr, align 8
  store ptr %0, ptr %2, align 8
  %3 = load ptr, ptr %2, align 8
  %4 = getelementptr inbounds %class.ExceptionMark, ptr %3, i32 0, i32 0
  %5 = load ptr, ptr %4, align 8
  ret ptr %5
}

; Function Attrs: mustprogress nounwind uwtable
define hidden void @_ZN28AbstractClassHierarchyWalker4initEv() #1 align 2 {
  %1 = alloca %class.ExceptionMark, align 8
  %2 = alloca ptr, align 8
  %3 = alloca i32, align 4
  %4 = load i8, ptr @UsePerfData, align 1
  %5 = trunc i8 %4 to i1
  br i1 %5, label %6, label %29

6:                                                ; preds = %0
  call void @_ZN13ExceptionMarkC1Ev(ptr noundef nonnull align 8 dereferenceable(8) %1)
  %7 = call noundef ptr @_ZN13ExceptionMark6threadEv(ptr noundef nonnull align 8 dereferenceable(8) %1)
  store ptr %7, ptr %2, align 8
  %8 = load ptr, ptr %2, align 8
  %9 = call noundef ptr @_ZN15PerfDataManager14create_counterE9CounterNSPKcN8PerfData5UnitsEP10JavaThread(i32 noundef 8, ptr noundef @.str.47, i32 noundef 4, ptr noundef %8)
  store ptr %9, ptr @_ZN28AbstractClassHierarchyWalker39_perf_find_witness_anywhere_calls_countE, align 8
  %10 = load ptr, ptr %2, align 8
  %11 = call noundef zeroext i1 @_ZNK12ThreadShadow21has_pending_exceptionEv(ptr noundef nonnull align 8 dereferenceable(28) %10)
  br i1 %11, label %12, label %13

12:                                               ; preds = %6
  store i32 1, ptr %3, align 4
  br label %26

13:                                               ; preds = %6
  %14 = load ptr, ptr %2, align 8
  %15 = call noundef ptr @_ZN15PerfDataManager14create_counterE9CounterNSPKcN8PerfData5UnitsEP10JavaThread(i32 noundef 8, ptr noundef @.str.48, i32 noundef 4, ptr noundef %14)
  store ptr %15, ptr @_ZN28AbstractClassHierarchyWalker39_perf_find_witness_anywhere_steps_countE, align 8
  %16 = load ptr, ptr %2, align 8
  %17 = call noundef zeroext i1 @_ZNK12ThreadShadow21has_pending_exceptionEv(ptr noundef nonnull align 8 dereferenceable(28) %16)
  br i1 %17, label %18, label %19

18:                                               ; preds = %13
  store i32 1, ptr %3, align 4
  br label %26

19:                                               ; preds = %13
  %20 = load ptr, ptr %2, align 8
  %21 = call noundef ptr @_ZN15PerfDataManager14create_counterE9CounterNSPKcN8PerfData5UnitsEP10JavaThread(i32 noundef 8, ptr noundef @.str.49, i32 noundef 4, ptr noundef %20)
  store ptr %21, ptr @_ZN28AbstractClassHierarchyWalker33_perf_find_witness_in_calls_countE, align 8
  %22 = load ptr, ptr %2, align 8
  %23 = call noundef zeroext i1 @_ZNK12ThreadShadow21has_pending_exceptionEv(ptr noundef nonnull align 8 dereferenceable(28) %22)
  br i1 %23, label %24, label %25

24:                                               ; preds = %19
  store i32 1, ptr %3, align 4
  br label %26

25:                                               ; preds = %19
  store i32 0, ptr %3, align 4
  br label %26

26:                                               ; preds = %25, %24, %18, %12
  call void @_ZN13ExceptionMarkD1Ev(ptr noundef nonnull align 8 dereferenceable(8) %1) #8
  %27 = load i32, ptr %3, align 4
  switch i32 %27, label %30 [
    i32 0, label %28
    i32 1, label %29
  ]

28:                                               ; preds = %26
  br label %29

29:                                               ; preds = %28, %26, %0
  ret void

30:                                               ; preds = %26
  unreachable
}