; Function Attrs: mustprogress nounwind uwtable
define hidden void @_ZN28AbstractClassHierarchyWalker4initEv() local_unnamed_addr #0 align 2 {
  %1 = alloca %class.ExceptionMark, align 8
  %2 = load i8, ptr @UsePerfData, align 1
  %3 = trunc i8 %2 to i1
  br i1 %3, label %4, label %15

4:                                                ; preds = %0
  call void @_ZN13ExceptionMarkC1Ev(ptr noundef nonnull align 8 dereferenceable(8) %1) #18
  %5 = load ptr, ptr %1, align 8
  %6 = call noundef ptr @_ZN15PerfDataManager19create_long_counterE9CounterNSPKcN8PerfData5UnitsElP10JavaThread(i32 noundef 8, ptr noundef nonnull @.str.47, i32 noundef 4, i64 noundef 0, ptr noundef %5) #18
  store ptr %6, ptr @_ZN28AbstractClassHierarchyWalker39_perf_find_witness_anywhere_calls_countE, align 8
  %7 = getelementptr inbounds i8, ptr %5, i64 8
  %8 = load ptr, ptr %7, align 8
  %.not = icmp eq ptr %8, null
  br i1 %.not, label %9, label %14

9:                                                ; preds = %4
  %10 = call noundef ptr @_ZN15PerfDataManager19create_long_counterE9CounterNSPKcN8PerfData5UnitsElP10JavaThread(i32 noundef 8, ptr noundef nonnull @.str.48, i32 noundef 4, i64 noundef 0, ptr noundef nonnull %5) #18
  store ptr %10, ptr @_ZN28AbstractClassHierarchyWalker39_perf_find_witness_anywhere_steps_countE, align 8
  %11 = load ptr, ptr %7, align 8
  %.not6 = icmp eq ptr %11, null
  br i1 %.not6, label %12, label %14

12:                                               ; preds = %9
  %13 = call noundef ptr @_ZN15PerfDataManager19create_long_counterE9CounterNSPKcN8PerfData5UnitsElP10JavaThread(i32 noundef 8, ptr noundef nonnull @.str.49, i32 noundef 4, i64 noundef 0, ptr noundef nonnull %5) #18
  store ptr %13, ptr @_ZN28AbstractClassHierarchyWalker33_perf_find_witness_in_calls_countE, align 8
  br label %14

14:                                               ; preds = %12, %9, %4
  call void @_ZN13ExceptionMarkD1Ev(ptr noundef nonnull align 8 dereferenceable(8) %1) #18
  br label %15

15:                                               ; preds = %14, %0
  ret void
}